; Function Attrs: mustprogress uwtable
define dso_local noundef zeroext i1 @_ZN3dap4json17JsonCppSerializer9serializeENS_7integerE(ptr nocapture noundef nonnull readonly align 8 dereferenceable(18) %0, i64 %1) unnamed_addr #0 align 2 {
  %3 = alloca %"class.Json::Value", align 8
  call void @_ZN4Json5ValueC1El(ptr noundef nonnull align 8 dereferenceable(40) %3, i64 noundef %1)
  %4 = getelementptr inbounds i8, ptr %0, i64 8
  %5 = load ptr, ptr %4, align 8
  %6 = call noundef nonnull align 8 dereferenceable(40) ptr @_ZN4Json5ValueaSEOS0_(ptr noundef nonnull align 8 dereferenceable(40) %5, ptr noundef nonnull align 8 dereferenceable(40) %3) #21
  call void @_ZN4Json5ValueD1Ev(ptr noundef nonnull align 8 dereferenceable(40) %3) #21
  ret i1 true
}